target datalayout = "e-m:e-p270:32:32-p271:32:32-p272:64:64-i64:64-i128:128-f80:128-n8:16:32:64-S128"
target triple = "x86_64-pc-linux-gnu"

%"class.pxrInternal_v0_24__pxrReserved__::VtArray" = type { %"class.pxrInternal_v0_24__pxrReserved__::Vt_ArrayBase", ptr }
%"class.pxrInternal_v0_24__pxrReserved__::Vt_ArrayBase" = type { %"struct.pxrInternal_v0_24__pxrReserved__::Vt_ShapeData", ptr }
%"struct.pxrInternal_v0_24__pxrReserved__::Vt_ShapeData" = type { i64, [3 x i32] }
%"class.pxrInternal_v0_24__pxrReserved__::PxOsdMeshTopology" = type <{ %"class.pxrInternal_v0_24__pxrReserved__::TfToken", %"class.pxrInternal_v0_24__pxrReserved__::TfToken", %"class.pxrInternal_v0_24__pxrReserved__::VtArray", %"class.pxrInternal_v0_24__pxrReserved__::VtArray", %"class.pxrInternal_v0_24__pxrReserved__::VtArray", %"class.pxrInternal_v0_24__pxrReserved__::PxOsdSubdivTags", %"struct.pxrInternal_v0_24__pxrReserved__::PxOsdMeshTopology::_Validated", [7 x i8] }>
%"class.pxrInternal_v0_24__pxrReserved__::TfToken" = type { %"class.pxrInternal_v0_24__pxrReserved__::TfPointerAndBits" }
%"class.pxrInternal_v0_24__pxrReserved__::TfPointerAndBits" = type { ptr }
%"class.pxrInternal_v0_24__pxrReserved__::PxOsdSubdivTags" = type { %"class.pxrInternal_v0_24__pxrReserved__::TfToken", %"class.pxrInternal_v0_24__pxrReserved__::TfToken", %"class.pxrInternal_v0_24__pxrReserved__::TfToken", %"class.pxrInternal_v0_24__pxrReserved__::TfToken", %"class.pxrInternal_v0_24__pxrReserved__::VtArray", %"class.pxrInternal_v0_24__pxrReserved__::VtArray", %"class.pxrInternal_v0_24__pxrReserved__::VtArray.0", %"class.pxrInternal_v0_24__pxrReserved__::VtArray", %"class.pxrInternal_v0_24__pxrReserved__::VtArray.0" }
%"class.pxrInternal_v0_24__pxrReserved__::VtArray.0" = type { %"class.pxrInternal_v0_24__pxrReserved__::Vt_ArrayBase", ptr }
%"struct.pxrInternal_v0_24__pxrReserved__::PxOsdMeshTopology::_Validated" = type { %"struct.std::atomic" }
%"struct.std::atomic" = type { %"struct.std::__atomic_base" }
%"struct.std::__atomic_base" = type { i8 }
%"class.pxrInternal_v0_24__pxrReserved__::TfStaticData" = type { %"struct.std::atomic.1" }
%"struct.std::atomic.1" = type { %"struct.std::__atomic_base.2" }
%"struct.std::__atomic_base.2" = type { ptr }
%"class.std::initializer_list" = type { ptr, i64 }
%"struct.pxrInternal_v0_24__pxrReserved__::PxOsdOpenSubdivTokens_StaticTokenType" = type { %"class.pxrInternal_v0_24__pxrReserved__::TfToken", %"class.pxrInternal_v0_24__pxrReserved__::TfToken", %"class.pxrInternal_v0_24__pxrReserved__::TfToken", %"class.pxrInternal_v0_24__pxrReserved__::TfToken", %"class.pxrInternal_v0_24__pxrReserved__::TfToken", %"class.pxrInternal_v0_24__pxrReserved__::TfToken", %"class.pxrInternal_v0_24__pxrReserved__::TfToken", %"class.pxrInternal_v0_24__pxrReserved__::TfToken", %"class.pxrInternal_v0_24__pxrReserved__::TfToken", %"class.pxrInternal_v0_24__pxrReserved__::TfToken", %"class.pxrInternal_v0_24__pxrReserved__::TfToken", %"class.pxrInternal_v0_24__pxrReserved__::TfToken", %"class.pxrInternal_v0_24__pxrReserved__::TfToken", %"class.pxrInternal_v0_24__pxrReserved__::TfToken", %"class.pxrInternal_v0_24__pxrReserved__::TfToken", %"class.pxrInternal_v0_24__pxrReserved__::TfToken", %"class.std::vector" }
%"class.std::vector" = type { %"struct.std::_Vector_base" }
%"struct.std::_Vector_base" = type { %"struct.std::_Vector_base<pxrInternal_v0_24__pxrReserved__::TfToken, std::allocator<pxrInternal_v0_24__pxrReserved__::TfToken>>::_Vector_impl" }
%"struct.std::_Vector_base<pxrInternal_v0_24__pxrReserved__::TfToken, std::allocator<pxrInternal_v0_24__pxrReserved__::TfToken>>::_Vector_impl" = type { %"struct.std::_Vector_base<pxrInternal_v0_24__pxrReserved__::TfToken, std::allocator<pxrInternal_v0_24__pxrReserved__::TfToken>>::_Vector_impl_data" }
%"struct.std::_Vector_base<pxrInternal_v0_24__pxrReserved__::TfToken, std::allocator<pxrInternal_v0_24__pxrReserved__::TfToken>>::_Vector_impl_data" = type { ptr, ptr, ptr }

@__dso_handle = external hidden global i8
@_ZN32pxrInternal_v0_24__pxrReserved__21PxOsdOpenSubdivTokensE = external global %"class.pxrInternal_v0_24__pxrReserved__::TfStaticData", align 8
@_ZZN32pxrInternal_v0_24__pxrReserved__26UsdImagingGetPlaneTopologyEvE8numVerts = internal global %"class.pxrInternal_v0_24__pxrReserved__::VtArray" zeroinitializer, align 8
@_ZGVZN32pxrInternal_v0_24__pxrReserved__26UsdImagingGetPlaneTopologyEvE8numVerts = internal global i64 0, align 8
@_ZZN32pxrInternal_v0_24__pxrReserved__26UsdImagingGetPlaneTopologyEvE5verts = internal global %"class.pxrInternal_v0_24__pxrReserved__::VtArray" zeroinitializer, align 8
@_ZGVZN32pxrInternal_v0_24__pxrReserved__26UsdImagingGetPlaneTopologyEvE5verts = internal global i64 0, align 8
@_ZZN32pxrInternal_v0_24__pxrReserved__26UsdImagingGetPlaneTopologyEvE9planeTopo = internal global %"class.pxrInternal_v0_24__pxrReserved__::PxOsdMeshTopology" zeroinitializer, align 8
@_ZGVZN32pxrInternal_v0_24__pxrReserved__26UsdImagingGetPlaneTopologyEvE9planeTopo = internal global i64 0, align 8

; Function Attrs: mustprogress uwtable
define noundef nonnull align 8 dereferenceable(369) ptr @_ZN32pxrInternal_v0_24__pxrReserved__26UsdImagingGetPlaneTopologyEv() #0 personality ptr @__gxx_personality_v0 {
  %1 = alloca %"class.std::initializer_list", align 8
  %2 = alloca [1 x i32], align 4
  %3 = alloca ptr, align 8
  %4 = alloca i32, align 4
  %5 = alloca %"class.std::initializer_list", align 8
  %6 = alloca [4 x i32], align 4
  %7 = load atomic i8, ptr @_ZGVZN32pxrInternal_v0_24__pxrReserved__26UsdImagingGetPlaneTopologyEvE8numVerts acquire, align 8
  %8 = icmp eq i8 %7, 0
  br i1 %8, label %9, label %21, !prof !4

9:                                                ; preds = %0
  %10 = call i32 @__cxa_guard_acquire(ptr @_ZGVZN32pxrInternal_v0_24__pxrReserved__26UsdImagingGetPlaneTopologyEvE8numVerts) #1
  %11 = icmp ne i32 %10, 0
  br i1 %11, label %12, label %21

12:                                               ; preds = %9
  store i32 4, ptr %2, align 4
  %13 = getelementptr inbounds nuw %"class.std::initializer_list", ptr %1, i32 0, i32 0
  store ptr %2, ptr %13, align 8
  %14 = getelementptr inbounds nuw %"class.std::initializer_list", ptr %1, i32 0, i32 1
  store i64 1, ptr %14, align 8
  %15 = getelementptr inbounds nuw { ptr, i64 }, ptr %1, i32 0, i32 0
  %16 = load ptr, ptr %15, align 8
  %17 = getelementptr inbounds nuw { ptr, i64 }, ptr %1, i32 0, i32 1
  %18 = load i64, ptr %17, align 8
  invoke void @_ZN32pxrInternal_v0_24__pxrReserved__7VtArrayIiEC1ESt16initializer_listIiE(ptr noundef nonnull align 8 dereferenceable(40) @_ZZN32pxrInternal_v0_24__pxrReserved__26UsdImagingGetPlaneTopologyEvE8numVerts, ptr %16, i64 %18)
          to label %19 unwind label %55

19:                                               ; preds = %12
  %20 = call i32 @__cxa_atexit(ptr @_ZN32pxrInternal_v0_24__pxrReserved__7VtArrayIiED1Ev, ptr @_ZZN32pxrInternal_v0_24__pxrReserved__26UsdImagingGetPlaneTopologyEvE8numVerts, ptr @__dso_handle) #1
  call void @__cxa_guard_release(ptr @_ZGVZN32pxrInternal_v0_24__pxrReserved__26UsdImagingGetPlaneTopologyEvE8numVerts) #1
  br label %21

21:                                               ; preds = %19, %9, %0
  %22 = load atomic i8, ptr @_ZGVZN32pxrInternal_v0_24__pxrReserved__26UsdImagingGetPlaneTopologyEvE5verts acquire, align 8
  %23 = icmp eq i8 %22, 0
  br i1 %23, label %24, label %39, !prof !4

24:                                               ; preds = %21
  %25 = call i32 @__cxa_guard_acquire(ptr @_ZGVZN32pxrInternal_v0_24__pxrReserved__26UsdImagingGetPlaneTopologyEvE5verts) #1
  %26 = icmp ne i32 %25, 0
  br i1 %26, label %27, label %39

27:                                               ; preds = %24
  store i32 0, ptr %6, align 4
  %28 = getelementptr inbounds i32, ptr %6, i64 1
  store i32 1, ptr %28, align 4
  %29 = getelementptr inbounds i32, ptr %6, i64 2
  store i32 2, ptr %29, align 4
  %30 = getelementptr inbounds i32, ptr %6, i64 3
  store i32 3, ptr %30, align 4
  %31 = getelementptr inbounds nuw %"class.std::initializer_list", ptr %5, i32 0, i32 0
  store ptr %6, ptr %31, align 8
  %32 = getelementptr inbounds nuw %"class.std::initializer_list", ptr %5, i32 0, i32 1
  store i64 4, ptr %32, align 8
  %33 = getelementptr inbounds nuw { ptr, i64 }, ptr %5, i32 0, i32 0
  %34 = load ptr, ptr %33, align 8
  %35 = getelementptr inbounds nuw { ptr, i64 }, ptr %5, i32 0, i32 1
  %36 = load i64, ptr %35, align 8
  invoke void @_ZN32pxrInternal_v0_24__pxrReserved__7VtArrayIiEC1ESt16initializer_listIiE(ptr noundef nonnull align 8 dereferenceable(40) @_ZZN32pxrInternal_v0_24__pxrReserved__26UsdImagingGetPlaneTopologyEvE5verts, ptr %34, i64 %36)
          to label %37 unwind label %59

37:                                               ; preds = %27
  %38 = call i32 @__cxa_atexit(ptr @_ZN32pxrInternal_v0_24__pxrReserved__7VtArrayIiED1Ev, ptr @_ZZN32pxrInternal_v0_24__pxrReserved__26UsdImagingGetPlaneTopologyEvE5verts, ptr @__dso_handle) #1
  call void @__cxa_guard_release(ptr @_ZGVZN32pxrInternal_v0_24__pxrReserved__26UsdImagingGetPlaneTopologyEvE5verts) #1
  br label %39

39:                                               ; preds = %37, %24, %21
  %40 = load atomic i8, ptr @_ZGVZN32pxrInternal_v0_24__pxrReserved__26UsdImagingGetPlaneTopologyEvE9planeTopo acquire, align 8
  %41 = icmp eq i8 %40, 0
  br i1 %41, label %42, label %54, !prof !4

42:                                               ; preds = %39
  %43 = call i32 @__cxa_guard_acquire(ptr @_ZGVZN32pxrInternal_v0_24__pxrReserved__26UsdImagingGetPlaneTopologyEvE9planeTopo) #1
  %44 = icmp ne i32 %43, 0
  br i1 %44, label %45, label %54

45:                                               ; preds = %42
  %46 = invoke noundef ptr @_ZNK32pxrInternal_v0_24__pxrReserved__12TfStaticDataINS_37PxOsdOpenSubdivTokens_StaticTokenTypeENS_27Tf_StaticDataDefaultFactoryIS1_EEEptEv(ptr noundef nonnull align 8 dereferenceable(8) @_ZN32pxrInternal_v0_24__pxrReserved__21PxOsdOpenSubdivTokensE)
          to label %47 unwind label %63

47:                                               ; preds = %45
  %48 = getelementptr inbounds nuw %"struct.pxrInternal_v0_24__pxrReserved__::PxOsdOpenSubdivTokens_StaticTokenType", ptr %46, i32 0, i32 6
  %49 = invoke noundef ptr @_ZNK32pxrInternal_v0_24__pxrReserved__12TfStaticDataINS_37PxOsdOpenSubdivTokens_StaticTokenTypeENS_27Tf_StaticDataDefaultFactoryIS1_EEEptEv(ptr noundef nonnull align 8 dereferenceable(8) @_ZN32pxrInternal_v0_24__pxrReserved__21PxOsdOpenSubdivTokensE)
          to label %50 unwind label %63

50:                                               ; preds = %47
  %51 = getelementptr inbounds nuw %"struct.pxrInternal_v0_24__pxrReserved__::PxOsdOpenSubdivTokens_StaticTokenType", ptr %49, i32 0, i32 14
  invoke void @_ZN32pxrInternal_v0_24__pxrReserved__17PxOsdMeshTopologyC1ERKNS_7TfTokenES3_RKNS_7VtArrayIiEES7_(ptr noundef nonnull align 8 dereferenceable(369) @_ZZN32pxrInternal_v0_24__pxrReserved__26UsdImagingGetPlaneTopologyEvE9planeTopo, ptr noundef nonnull align 8 dereferenceable(8) %48, ptr noundef nonnull align 8 dereferenceable(8) %51, ptr noundef nonnull align 8 dereferenceable(40) @_ZZN32pxrInternal_v0_24__pxrReserved__26UsdImagingGetPlaneTopologyEvE8numVerts, ptr noundef nonnull align 8 dereferenceable(40) @_ZZN32pxrInternal_v0_24__pxrReserved__26UsdImagingGetPlaneTopologyEvE5verts)
          to label %52 unwind label %63

52:                                               ; preds = %50
  %53 = call i32 @__cxa_atexit(ptr @_ZN32pxrInternal_v0_24__pxrReserved__17PxOsdMeshTopologyD2Ev, ptr @_ZZN32pxrInternal_v0_24__pxrReserved__26UsdImagingGetPlaneTopologyEvE9planeTopo, ptr @__dso_handle) #1
  call void @__cxa_guard_release(ptr @_ZGVZN32pxrInternal_v0_24__pxrReserved__26UsdImagingGetPlaneTopologyEvE9planeTopo) #1
  br label %54

54:                                               ; preds = %52, %42, %39
  ret ptr @_ZZN32pxrInternal_v0_24__pxrReserved__26UsdImagingGetPlaneTopologyEvE9planeTopo

55:                                               ; preds = %12
  %56 = landingpad { ptr, i32 }
          cleanup
  %57 = extractvalue { ptr, i32 } %56, 0
  store ptr %57, ptr %3, align 8
  %58 = extractvalue { ptr, i32 } %56, 1
  store i32 %58, ptr %4, align 4
  call void @__cxa_guard_abort(ptr @_ZGVZN32pxrInternal_v0_24__pxrReserved__26UsdImagingGetPlaneTopologyEvE8numVerts) #1
  br label %67

59:                                               ; preds = %27
  %60 = landingpad { ptr, i32 }
          cleanup
  %61 = extractvalue { ptr, i32 } %60, 0
  store ptr %61, ptr %3, align 8
  %62 = extractvalue { ptr, i32 } %60, 1
  store i32 %62, ptr %4, align 4
  call void @__cxa_guard_abort(ptr @_ZGVZN32pxrInternal_v0_24__pxrReserved__26UsdImagingGetPlaneTopologyEvE5verts) #1
  br label %67

63:                                               ; preds = %50, %47, %45
  %64 = landingpad { ptr, i32 }
          cleanup
  %65 = extractvalue { ptr, i32 } %64, 0
  store ptr %65, ptr %3, align 8
  %66 = extractvalue { ptr, i32 } %64, 1
  store i32 %66, ptr %4, align 4
  call void @__cxa_guard_abort(ptr @_ZGVZN32pxrInternal_v0_24__pxrReserved__26UsdImagingGetPlaneTopologyEvE9planeTopo) #1
  br label %67

67:                                               ; preds = %63, %59, %55
  %68 = load ptr, ptr %3, align 8
  %69 = load i32, ptr %4, align 4
  %70 = insertvalue { ptr, i32 } poison, ptr %68, 0
  %71 = insertvalue { ptr, i32 } %70, i32 %69, 1
  resume { ptr, i32 } %71
}