; Function Attrs: mustprogress uwtable
define noundef nonnull align 8 dereferenceable(369) ptr @_ZN32pxrInternal_v0_24__pxrReserved__26UsdImagingGetPlaneTopologyEv() local_unnamed_addr #0 personality ptr @__gxx_personality_v0 {
  %1 = alloca [1 x i32], align 4
  %2 = alloca [4 x i32], align 4
  %3 = load atomic i8, ptr @_ZGVZN32pxrInternal_v0_24__pxrReserved__26UsdImagingGetPlaneTopologyEvE8numVerts acquire, align 8
  %4 = icmp eq i8 %3, 0
  br i1 %4, label %5, label %10, !prof !4

5:                                                ; preds = %0
  %6 = tail call i32 @__cxa_guard_acquire(ptr nonnull @_ZGVZN32pxrInternal_v0_24__pxrReserved__26UsdImagingGetPlaneTopologyEvE8numVerts) #12
  %.not = icmp eq i32 %6, 0
  br i1 %.not, label %10, label %7

7:                                                ; preds = %5
  store i32 4, ptr %1, align 4
  invoke void @_ZN32pxrInternal_v0_24__pxrReserved__7VtArrayIiEC1ESt16initializer_listIiE(ptr noundef nonnull align 8 dereferenceable(40) @_ZZN32pxrInternal_v0_24__pxrReserved__26UsdImagingGetPlaneTopologyEvE8numVerts, ptr nonnull %1, i64 1)
          to label %8 unwind label %36

8:                                                ; preds = %7
  %9 = call i32 @__cxa_atexit(ptr nonnull @_ZN32pxrInternal_v0_24__pxrReserved__7VtArrayIiED1Ev, ptr nonnull @_ZZN32pxrInternal_v0_24__pxrReserved__26UsdImagingGetPlaneTopologyEvE8numVerts, ptr nonnull @__dso_handle) #12
  call void @__cxa_guard_release(ptr nonnull @_ZGVZN32pxrInternal_v0_24__pxrReserved__26UsdImagingGetPlaneTopologyEvE8numVerts) #12
  br label %10

10:                                               ; preds = %8, %5, %0
  %11 = load atomic i8, ptr @_ZGVZN32pxrInternal_v0_24__pxrReserved__26UsdImagingGetPlaneTopologyEvE5verts acquire, align 8
  %12 = icmp eq i8 %11, 0
  br i1 %12, label %13, label %21, !prof !4

13:                                               ; preds = %10
  %14 = call i32 @__cxa_guard_acquire(ptr nonnull @_ZGVZN32pxrInternal_v0_24__pxrReserved__26UsdImagingGetPlaneTopologyEvE5verts) #12
  %.not4 = icmp eq i32 %14, 0
  br i1 %.not4, label %21, label %15

15:                                               ; preds = %13
  store i32 0, ptr %2, align 4
  %16 = getelementptr inbounds i8, ptr %2, i64 4
  store i32 1, ptr %16, align 4
  %17 = getelementptr inbounds i8, ptr %2, i64 8
  store i32 2, ptr %17, align 4
  %18 = getelementptr inbounds i8, ptr %2, i64 12
  store i32 3, ptr %18, align 4
  invoke void @_ZN32pxrInternal_v0_24__pxrReserved__7VtArrayIiEC1ESt16initializer_listIiE(ptr noundef nonnull align 8 dereferenceable(40) @_ZZN32pxrInternal_v0_24__pxrReserved__26UsdImagingGetPlaneTopologyEvE5verts, ptr nonnull %2, i64 4)
          to label %19 unwind label %38

19:                                               ; preds = %15
  %20 = call i32 @__cxa_atexit(ptr nonnull @_ZN32pxrInternal_v0_24__pxrReserved__7VtArrayIiED1Ev, ptr nonnull @_ZZN32pxrInternal_v0_24__pxrReserved__26UsdImagingGetPlaneTopologyEvE5verts, ptr nonnull @__dso_handle) #12
  call void @__cxa_guard_release(ptr nonnull @_ZGVZN32pxrInternal_v0_24__pxrReserved__26UsdImagingGetPlaneTopologyEvE5verts) #12
  br label %21

21:                                               ; preds = %19, %13, %10
  %22 = load atomic i8, ptr @_ZGVZN32pxrInternal_v0_24__pxrReserved__26UsdImagingGetPlaneTopologyEvE9planeTopo acquire, align 8
  %23 = icmp eq i8 %22, 0
  br i1 %23, label %24, label %35, !prof !4

24:                                               ; preds = %21
  %25 = call i32 @__cxa_guard_acquire(ptr nonnull @_ZGVZN32pxrInternal_v0_24__pxrReserved__26UsdImagingGetPlaneTopologyEvE9planeTopo) #12
  %.not5 = icmp eq i32 %25, 0
  br i1 %.not5, label %35, label %26

26:                                               ; preds = %24
  %27 = invoke noundef ptr @_ZNK32pxrInternal_v0_24__pxrReserved__12TfStaticDataINS_37PxOsdOpenSubdivTokens_StaticTokenTypeENS_27Tf_StaticDataDefaultFactoryIS1_EEEptEv(ptr noundef nonnull align 8 dereferenceable(8) @_ZN32pxrInternal_v0_24__pxrReserved__21PxOsdOpenSubdivTokensE)
          to label %28 unwind label %40

28:                                               ; preds = %26
  %29 = invoke noundef ptr @_ZNK32pxrInternal_v0_24__pxrReserved__12TfStaticDataINS_37PxOsdOpenSubdivTokens_StaticTokenTypeENS_27Tf_StaticDataDefaultFactoryIS1_EEEptEv(ptr noundef nonnull align 8 dereferenceable(8) @_ZN32pxrInternal_v0_24__pxrReserved__21PxOsdOpenSubdivTokensE)
          to label %30 unwind label %40

30:                                               ; preds = %28
  %31 = getelementptr inbounds nuw i8, ptr %27, i64 48
  %32 = getelementptr inbounds nuw i8, ptr %29, i64 112
  invoke void @_ZN32pxrInternal_v0_24__pxrReserved__17PxOsdMeshTopologyC1ERKNS_7TfTokenES3_RKNS_7VtArrayIiEES7_(ptr noundef nonnull align 8 dereferenceable(369) @_ZZN32pxrInternal_v0_24__pxrReserved__26UsdImagingGetPlaneTopologyEvE9planeTopo, ptr noundef nonnull align 8 dereferenceable(8) %31, ptr noundef nonnull align 8 dereferenceable(8) %32, ptr noundef nonnull align 8 dereferenceable(40) @_ZZN32pxrInternal_v0_24__pxrReserved__26UsdImagingGetPlaneTopologyEvE8numVerts, ptr noundef nonnull align 8 dereferenceable(40) @_ZZN32pxrInternal_v0_24__pxrReserved__26UsdImagingGetPlaneTopologyEvE5verts)
          to label %33 unwind label %40

33:                                               ; preds = %30
  %34 = call i32 @__cxa_atexit(ptr nonnull @_ZN32pxrInternal_v0_24__pxrReserved__17PxOsdMeshTopologyD2Ev, ptr nonnull @_ZZN32pxrInternal_v0_24__pxrReserved__26UsdImagingGetPlaneTopologyEvE9planeTopo, ptr nonnull @__dso_handle) #12
  call void @__cxa_guard_release(ptr nonnull @_ZGVZN32pxrInternal_v0_24__pxrReserved__26UsdImagingGetPlaneTopologyEvE9planeTopo) #12
  br label %35

35:                                               ; preds = %33, %24, %21
  ret ptr @_ZZN32pxrInternal_v0_24__pxrReserved__26UsdImagingGetPlaneTopologyEvE9planeTopo

36:                                               ; preds = %7
  %37 = landingpad { ptr, i32 }
          cleanup
  br label %42

38:                                               ; preds = %15
  %39 = landingpad { ptr, i32 }
          cleanup
  br label %42

40:                                               ; preds = %30, %28, %26
  %41 = landingpad { ptr, i32 }
          cleanup
  br label %42

42:                                               ; preds = %40, %38, %36
  %_ZGVZN32pxrInternal_v0_24__pxrReserved__26UsdImagingGetPlaneTopologyEvE9planeTopo.sink = phi ptr [ @_ZGVZN32pxrInternal_v0_24__pxrReserved__26UsdImagingGetPlaneTopologyEvE9planeTopo, %40 ], [ @_ZGVZN32pxrInternal_v0_24__pxrReserved__26UsdImagingGetPlaneTopologyEvE5verts, %38 ], [ @_ZGVZN32pxrInternal_v0_24__pxrReserved__26UsdImagingGetPlaneTopologyEvE8numVerts, %36 ]
  %.pn = phi { ptr, i32 } [ %41, %40 ], [ %39, %38 ], [ %37, %36 ]
  call void @__cxa_guard_abort(ptr nonnull %_ZGVZN32pxrInternal_v0_24__pxrReserved__26UsdImagingGetPlaneTopologyEvE9planeTopo.sink) #12
  resume { ptr, i32 } %.pn
}